; ModuleID = '38/596.c'
source_filename = "38/596.c"
target datalayout = "e-m:e-p270:32:32-p271:32:32-p272:64:64-i64:64-f80:128-n8:16:32:64-S128"
target triple = "x86_64-pc-linux-gnu"

@.str = private unnamed_addr constant [3 x i8] c"%d\00", align 1
@.str.1 = private unnamed_addr constant [4 x i8] c"%lf\00", align 1
@.str.2 = private unnamed_addr constant [7 x i8] c"%.5lf\0A\00", align 1

; Function Attrs: noinline nounwind uwtable
define dso_local i32 @main() #0 {
  %1 = alloca i32, align 4
  %2 = alloca i32, align 4
  %3 = alloca i32, align 4
  %4 = alloca i32, align 4
  %5 = alloca i32, align 4
  %6 = alloca [100 x double], align 16
  %7 = alloca [100 x double], align 16
  %8 = alloca [100 x double], align 16
  %9 = alloca double, align 8
  %10 = alloca double, align 8
  store i32 0, i32* %1, align 4
  store i32 0, i32* %4, align 4
  br label %11

11:                                               ; preds = %21, %0
  %12 = load i32, i32* %4, align 4
  %13 = icmp slt i32 %12, 100
  br i1 %13, label %14, label %24

14:                                               ; preds = %11
  %15 = load i32, i32* %4, align 4
  %16 = sext i32 %15 to i64
  %17 = getelementptr inbounds [100 x double], [100 x double]* %6, i64 0, i64 %16
  store double 0.000000e+00, double* %17, align 8
  %18 = load i32, i32* %4, align 4
  %19 = sext i32 %18 to i64
  %20 = getelementptr inbounds [100 x double], [100 x double]* %7, i64 0, i64 %19
  store double 0.000000e+00, double* %20, align 8
  br label %21

21:                                               ; preds = %14
  %22 = load i32, i32* %4, align 4
  %23 = add nsw i32 %22, 1
  store i32 %23, i32* %4, align 4
  br label %11

24:                                               ; preds = %11
  %25 = call i32 (i8*, ...) @__isoc99_scanf(i8* getelementptr inbounds ([3 x i8], [3 x i8]* @.str, i64 0, i64 0), i32* %3)
  store i32 0, i32* %4, align 4
  br label %26

26:                                               ; preds = %96, %24
  %27 = load i32, i32* %4, align 4
  %28 = load i32, i32* %3, align 4
  %29 = icmp slt i32 %27, %28
  br i1 %29, label %30, label %99

30:                                               ; preds = %26
  %31 = call i32 (i8*, ...) @__isoc99_scanf(i8* getelementptr inbounds ([3 x i8], [3 x i8]* @.str, i64 0, i64 0), i32* %2)
  store double 0.000000e+00, double* %9, align 8
  store double 0.000000e+00, double* %10, align 8
  store i32 0, i32* %5, align 4
  br label %32

32:                                               ; preds = %47, %30
  %33 = load i32, i32* %5, align 4
  %34 = load i32, i32* %2, align 4
  %35 = icmp slt i32 %33, %34
  br i1 %35, label %36, label %50

36:                                               ; preds = %32
  %37 = load i32, i32* %5, align 4
  %38 = sext i32 %37 to i64
  %39 = getelementptr inbounds [100 x double], [100 x double]* %8, i64 0, i64 %38
  %40 = call i32 (i8*, ...) @__isoc99_scanf(i8* getelementptr inbounds ([4 x i8], [4 x i8]* @.str.1, i64 0, i64 0), double* %39)
  %41 = load i32, i32* %5, align 4
  %42 = sext i32 %41 to i64
  %43 = getelementptr inbounds [100 x double], [100 x double]* %8, i64 0, i64 %42
  %44 = load double, double* %43, align 8
  %45 = load double, double* %9, align 8
  %46 = fadd double %45, %44
  store double %46, double* %9, align 8
  br label %47

47:                                               ; preds = %36
  %48 = load i32, i32* %5, align 4
  %49 = add nsw i32 %48, 1
  store i32 %49, i32* %5, align 4
  br label %32

50:                                               ; preds = %32
  %51 = load double, double* %9, align 8
  %52 = load i32, i32* %2, align 4
  %53 = sitofp i32 %52 to double
  %54 = fdiv double %51, %53
  %55 = load i32, i32* %4, align 4
  %56 = sext i32 %55 to i64
  %57 = getelementptr inbounds [100 x double], [100 x double]* %6, i64 0, i64 %56
  store double %54, double* %57, align 8
  store i32 0, i32* %5, align 4
  br label %58

58:                                               ; preds = %84, %50
  %59 = load i32, i32* %5, align 4
  %60 = load i32, i32* %2, align 4
  %61 = icmp slt i32 %59, %60
  br i1 %61, label %62, label %87

62:                                               ; preds = %58
  %63 = load i32, i32* %5, align 4
  %64 = sext i32 %63 to i64
  %65 = getelementptr inbounds [100 x double], [100 x double]* %8, i64 0, i64 %64
  %66 = load double, double* %65, align 8
  %67 = load i32, i32* %4, align 4
  %68 = sext i32 %67 to i64
  %69 = getelementptr inbounds [100 x double], [100 x double]* %6, i64 0, i64 %68
  %70 = load double, double* %69, align 8
  %71 = fsub double %66, %70
  %72 = load i32, i32* %5, align 4
  %73 = sext i32 %72 to i64
  %74 = getelementptr inbounds [100 x double], [100 x double]* %8, i64 0, i64 %73
  %75 = load double, double* %74, align 8
  %76 = load i32, i32* %4, align 4
  %77 = sext i32 %76 to i64
  %78 = getelementptr inbounds [100 x double], [100 x double]* %6, i64 0, i64 %77
  %79 = load double, double* %78, align 8
  %80 = fsub double %75, %79
  %81 = fmul double %71, %80
  %82 = load double, double* %10, align 8
  %83 = fadd double %82, %81
  store double %83, double* %10, align 8
  br label %84

84:                                               ; preds = %62
  %85 = load i32, i32* %5, align 4
  %86 = add nsw i32 %85, 1
  store i32 %86, i32* %5, align 4
  br label %58

87:                                               ; preds = %58
  %88 = load double, double* %10, align 8
  %89 = load i32, i32* %2, align 4
  %90 = sitofp i32 %89 to double
  %91 = fdiv double %88, %90
  %92 = call double @sqrt(double %91) #3
  %93 = load i32, i32* %4, align 4
  %94 = sext i32 %93 to i64
  %95 = getelementptr inbounds [100 x double], [100 x double]* %7, i64 0, i64 %94
  store double %92, double* %95, align 8
  br label %96

96:                                               ; preds = %87
  %97 = load i32, i32* %4, align 4
  %98 = add nsw i32 %97, 1
  store i32 %98, i32* %4, align 4
  br label %26

99:                                               ; preds = %26
  store i32 0, i32* %4, align 4
  br label %100

100:                                              ; preds = %110, %99
  %101 = load i32, i32* %4, align 4
  %102 = load i32, i32* %3, align 4
  %103 = icmp slt i32 %101, %102
  br i1 %103, label %104, label %113

104:                                              ; preds = %100
  %105 = load i32, i32* %4, align 4
  %106 = sext i32 %105 to i64
  %107 = getelementptr inbounds [100 x double], [100 x double]* %7, i64 0, i64 %106
  %108 = load double, double* %107, align 8
  %109 = call i32 (i8*, ...) @printf(i8* getelementptr inbounds ([7 x i8], [7 x i8]* @.str.2, i64 0, i64 0), double %108)
  br label %110

110:                                              ; preds = %104
  %111 = load i32, i32* %4, align 4
  %112 = add nsw i32 %111, 1
  store i32 %112, i32* %4, align 4
  br label %100

113:                                              ; preds = %100
  ret i32 0
}

declare dso_local i32 @__isoc99_scanf(i8*, ...) #1

; Function Attrs: nounwind
declare dso_local double @sqrt(double) #2

declare dso_local i32 @printf(i8*, ...) #1


!llvm.module.flags = !{!0}
!llvm.ident = !{!1}

!0 = !{i32 1, !"wchar_size", i32 4}
!1 = !{!"clang version 10.0.0-4ubuntu1 "}
